; Function Attrs: nounwind uwtable
define ptr @l_Lake_LeanVer_toLean(ptr noundef %0) #0 {
  %2 = tail call ptr @l_Lake_StdVer_toString(ptr noundef %0) #6
  %3 = tail call ptr @l_String_quote(ptr noundef %2) #6
  %4 = ptrtoint ptr %2 to i64
  %5 = and i64 %4, 1
  %.not = icmp eq i64 %5, 0
  br i1 %.not, label %6, label %lean_dec.exit

6:                                                ; preds = %1
  %7 = load i32, ptr %2, align 4, !tbaa !8
  %8 = icmp sgt i32 %7, 1
  br i1 %8, label %9, label %11, !prof !11

9:                                                ; preds = %6
  %10 = add nsw i32 %7, -1
  store i32 %10, ptr %2, align 4, !tbaa !8
  br label %lean_dec.exit

11:                                               ; preds = %6
  %.not.i = icmp eq i32 %7, 0
  br i1 %.not.i, label %lean_dec.exit, label %12

12:                                               ; preds = %11
  tail call void @lean_dec_ref_cold(ptr noundef nonnull %2) #6
  br label %lean_dec.exit

lean_dec.exit:                                    ; preds = %12, %11, %9, %1
  %13 = load ptr, ptr @l_Lake_LeanVer_toLean___closed__2, align 8, !tbaa !12
  %14 = tail call ptr @l_Lean_Syntax_mkLit(ptr noundef %13, ptr noundef %3, ptr noundef nonnull inttoptr (i64 5 to ptr)) #6
  tail call void @lean_inc_heartbeat() #6
  %15 = tail call noalias ptr @mi_malloc_small(i64 noundef 24) #6
  %16 = icmp eq ptr %15, null
  br i1 %16, label %17, label %lean_alloc_ctor.exit

17:                                               ; preds = %lean_dec.exit
  tail call void @lean_internal_panic_out_of_memory() #7
  unreachable

lean_alloc_ctor.exit:                             ; preds = %lean_dec.exit
  %18 = getelementptr inbounds nuw i8, ptr %15, i64 4
  store i32 1, ptr %15, align 4, !tbaa !8
  store i32 16908312, ptr %18, align 4
  %19 = getelementptr inbounds nuw i8, ptr %15, i64 8
  store ptr %14, ptr %19, align 8, !tbaa !12
  %20 = getelementptr inbounds nuw i8, ptr %15, i64 16
  store ptr inttoptr (i64 1 to ptr), ptr %20, align 8, !tbaa !12
  %21 = tail call ptr @lean_array_mk(ptr noundef nonnull %15) #6
  %22 = load ptr, ptr @l_Lake_LeanVer_toLean___closed__4, align 8, !tbaa !12
  tail call void @lean_inc_heartbeat() #6
  %23 = tail call noalias ptr @mi_malloc_small(i64 noundef 32) #6
  %24 = icmp eq ptr %23, null
  br i1 %24, label %25, label %lean_alloc_ctor.exit22

25:                                               ; preds = %lean_alloc_ctor.exit
  tail call void @lean_internal_panic_out_of_memory() #7
  unreachable

lean_alloc_ctor.exit22:                           ; preds = %lean_alloc_ctor.exit
  %26 = getelementptr inbounds nuw i8, ptr %23, i64 4
  store i32 1, ptr %23, align 4, !tbaa !8
  store i32 16973856, ptr %26, align 4
  %27 = getelementptr inbounds nuw i8, ptr %23, i64 8
  store ptr inttoptr (i64 5 to ptr), ptr %27, align 8, !tbaa !12
  %28 = getelementptr inbounds nuw i8, ptr %23, i64 16
  store ptr %22, ptr %28, align 8, !tbaa !12
  %29 = getelementptr inbounds nuw i8, ptr %23, i64 24
  store ptr %21, ptr %29, align 8, !tbaa !12
  %30 = load ptr, ptr @l_Lake_instToLeanArrayMkStr1___rarg___closed__1, align 8, !tbaa !12
  %31 = load ptr, ptr @l_Lake_LeanVer_toLean___closed__6, align 8, !tbaa !12
  %32 = load ptr, ptr @l_Lake_LeanVer_toLean___closed__8, align 8, !tbaa !12
  %33 = tail call ptr @l_Lean_Syntax_node2(ptr noundef %30, ptr noundef %31, ptr noundef %32, ptr noundef nonnull %23) #6
  ret ptr %33
}